target datalayout = "e-m:e-p270:32:32-p271:32:32-p272:64:64-i64:64-i128:128-f80:128-n8:16:32:64-S128"
target triple = "x86_64-pc-linux-gnu"

%struct.OnigSyntaxType = type { i32, i32, i32, i32, %struct.OnigMetaCharTableType }
%struct.OnigMetaCharTableType = type { i32, i32, i32, i32, i32, i32 }
%struct.ParseEnv = type { i32, i32, ptr, ptr, i32, i32, i32, ptr, ptr, ptr, ptr, ptr, i32, i32, i32, i32, [8 x %struct.MemEnv], ptr, i32, i32, i32, i32, ptr, ptr, i32, i32 }
%struct.MemEnv = type { ptr, ptr }

@onig_warn = internal global ptr @onig_null_warn, align 8
@.str.4 = private unnamed_addr constant [40 x i8] c"character class has '%s' without escape\00", align 1

; Function Attrs: nounwind uwtable
define internal void @CC_ESC_WARN(ptr noundef %0, ptr noundef %1) #0 {
  %3 = alloca ptr, align 8
  %4 = alloca ptr, align 8
  %5 = alloca [256 x i8], align 16
  store ptr %0, ptr %3, align 8, !tbaa !9
  store ptr %1, ptr %4, align 8, !tbaa !4
  %6 = load ptr, ptr @onig_warn, align 8, !tbaa !9
  %7 = icmp eq ptr %6, @onig_null_warn
  br i1 %7, label %8, label %9

8:                                                ; preds = %2
  br label %39

9:                                                ; preds = %2
  %10 = load ptr, ptr %3, align 8, !tbaa !9
  %11 = getelementptr inbounds nuw %struct.ParseEnv, ptr %10, i32 0, i32 3
  %12 = load ptr, ptr %11, align 8, !tbaa !158
  %13 = getelementptr inbounds nuw %struct.OnigSyntaxType, ptr %12, i32 0, i32 2
  %14 = load i32, ptr %13, align 4, !tbaa !71
  %15 = and i32 %14, 16777216
  %16 = icmp ne i32 %15, 0
  br i1 %16, label %17, label %39

17:                                               ; preds = %9
  %18 = load ptr, ptr %3, align 8, !tbaa !9
  %19 = getelementptr inbounds nuw %struct.ParseEnv, ptr %18, i32 0, i32 3
  %20 = load ptr, ptr %19, align 8, !tbaa !158
  %21 = getelementptr inbounds nuw %struct.OnigSyntaxType, ptr %20, i32 0, i32 2
  %22 = load i32, ptr %21, align 4, !tbaa !71
  %23 = and i32 %22, 2097152
  %24 = icmp ne i32 %23, 0
  br i1 %24, label %25, label %39

25:                                               ; preds = %17
  call void @llvm.lifetime.start.p0(i64 256, ptr %5) #8
  %26 = getelementptr inbounds [256 x i8], ptr %5, i64 0, i64 0
  %27 = load ptr, ptr %3, align 8, !tbaa !9
  %28 = getelementptr inbounds nuw %struct.ParseEnv, ptr %27, i32 0, i32 2
  %29 = load ptr, ptr %28, align 8, !tbaa !157
  %30 = load ptr, ptr %3, align 8, !tbaa !9
  %31 = getelementptr inbounds nuw %struct.ParseEnv, ptr %30, i32 0, i32 7
  %32 = load ptr, ptr %31, align 8, !tbaa !159
  %33 = load ptr, ptr %3, align 8, !tbaa !9
  %34 = getelementptr inbounds nuw %struct.ParseEnv, ptr %33, i32 0, i32 8
  %35 = load ptr, ptr %34, align 8, !tbaa !160
  %36 = load ptr, ptr %4, align 8, !tbaa !4
  call void (ptr, i32, ptr, ptr, ptr, ptr, ...) @onig_snprintf_with_pattern(ptr noundef %26, i32 noundef 256, ptr noundef %29, ptr noundef %32, ptr noundef %35, ptr noundef @.str.4, ptr noundef %36)
  %37 = load ptr, ptr @onig_warn, align 8, !tbaa !9
  %38 = getelementptr inbounds [256 x i8], ptr %5, i64 0, i64 0
  call void %37(ptr noundef %38)
  call void @llvm.lifetime.end.p0(i64 256, ptr %5) #8
  br label %39

39:                                               ; preds = %8, %25, %17, %9
  ret void
}