; Function Attrs: nounwind uwtable
define internal fastcc void @CC_ESC_WARN(ptr noundef readonly captures(none) %0, ptr noundef %1) unnamed_addr #2 {
  %3 = alloca [256 x i8], align 16
  %4 = load ptr, ptr @onig_warn, align 8, !tbaa !4
  %5 = icmp eq ptr %4, @onig_null_warn
  br i1 %5, label %20, label %6

6:                                                ; preds = %2
  %7 = getelementptr inbounds nuw i8, ptr %0, i64 16
  %8 = load ptr, ptr %7, align 8, !tbaa !144
  %9 = getelementptr inbounds nuw i8, ptr %8, i64 8
  %10 = load i32, ptr %9, align 4, !tbaa !58
  %11 = and i32 %10, 18874368
  %or.cond.not = icmp eq i32 %11, 18874368
  br i1 %or.cond.not, label %12, label %20

12:                                               ; preds = %6
  call void @llvm.lifetime.start.p0(i64 256, ptr nonnull %3) #24
  %13 = getelementptr inbounds nuw i8, ptr %0, i64 8
  %14 = load ptr, ptr %13, align 8, !tbaa !143
  %15 = getelementptr inbounds nuw i8, ptr %0, i64 40
  %16 = load ptr, ptr %15, align 8, !tbaa !145
  %17 = getelementptr inbounds nuw i8, ptr %0, i64 48
  %18 = load ptr, ptr %17, align 8, !tbaa !146
  call void (ptr, i32, ptr, ptr, ptr, ptr, ...) @onig_snprintf_with_pattern(ptr noundef nonnull %3, i32 noundef 256, ptr noundef %14, ptr noundef %16, ptr noundef %18, ptr noundef nonnull @.str.4, ptr noundef %1) #24
  %19 = load ptr, ptr @onig_warn, align 8, !tbaa !4
  call void %19(ptr noundef nonnull %3) #24
  call void @llvm.lifetime.end.p0(i64 256, ptr nonnull %3) #24
  br label %20

20:                                               ; preds = %2, %12, %6
  ret void
}